; Function Attrs: mustprogress uwtable
define internal fastcc void @_ZN12_GLOBAL__N_119interpolationLinearIiE9getCoeffsEiPiPNS_12fixedpoint64E(ptr noundef nonnull align 8 dereferenceable(20) %0, i32 noundef %1, ptr noundef writeonly captures(none) %2, ptr noundef writeonly captures(none) %3) unnamed_addr #4 align 2 {
  %5 = alloca %"struct.cv::softdouble", align 8
  %6 = alloca %"struct.cv::softdouble", align 8
  %7 = alloca %"struct.cv::softdouble", align 8
  %8 = alloca %"struct.cv::softdouble", align 8
  %9 = alloca %"struct.cv::softdouble", align 8
  %10 = alloca %"struct.cv::softdouble", align 8
  %11 = alloca %"struct.cv::softdouble", align 8
  %12 = alloca %"struct.cv::softdouble", align 8
  %13 = alloca %"struct.cv::softdouble", align 8
  %14 = alloca %"struct.cv::softdouble", align 8
  call void @llvm.lifetime.start.p0(i64 8, ptr nonnull %7) #21
  call void @llvm.lifetime.start.p0(i64 8, ptr nonnull %8) #21
  call void @llvm.lifetime.start.p0(i64 8, ptr nonnull %9) #21
  call void @llvm.lifetime.start.p0(i64 8, ptr nonnull %10) #21
  call void @_ZN2cv10softdoubleC1Ei(ptr noundef nonnull align 8 dereferenceable(8) %10, i32 noundef %1)
  call void @llvm.lifetime.start.p0(i64 8, ptr nonnull %11) #21
  store double 5.000000e-01, ptr %11, align 8, !tbaa !149
  call void @_ZNK2cv10softdoubleplERKS0_(ptr dead_on_unwind nonnull writable sret(%"struct.cv::softdouble") align 8 %9, ptr noundef nonnull align 8 dereferenceable(8) %10, ptr noundef nonnull align 8 dereferenceable(8) %11)
  call void @_ZNK2cv10softdoublemlERKS0_(ptr dead_on_unwind nonnull writable sret(%"struct.cv::softdouble") align 8 %8, ptr noundef nonnull align 8 dereferenceable(8) %0, ptr noundef nonnull align 8 dereferenceable(8) %9)
  call void @llvm.lifetime.start.p0(i64 8, ptr nonnull %12) #21
  store double 5.000000e-01, ptr %12, align 8, !tbaa !149
  call void @_ZNK2cv10softdoublemiERKS0_(ptr dead_on_unwind nonnull writable sret(%"struct.cv::softdouble") align 8 %7, ptr noundef nonnull align 8 dereferenceable(8) %8, ptr noundef nonnull align 8 dereferenceable(8) %12)
  call void @llvm.lifetime.end.p0(i64 8, ptr nonnull %12) #21
  call void @llvm.lifetime.end.p0(i64 8, ptr nonnull %11) #21
  call void @llvm.lifetime.end.p0(i64 8, ptr nonnull %10) #21
  call void @llvm.lifetime.end.p0(i64 8, ptr nonnull %9) #21
  call void @llvm.lifetime.end.p0(i64 8, ptr nonnull %8) #21
  %15 = call noundef i32 @_Z7cvFloorRKN2cv10softdoubleE(ptr noundef nonnull align 8 dereferenceable(8) %7)
  %16 = icmp sgt i32 %15, -1
  br i1 %16, label %17, label %36

17:                                               ; preds = %4
  %18 = getelementptr inbounds nuw i8, ptr %0, i64 8
  %19 = load i32, ptr %18, align 8, !tbaa !299
  %20 = icmp sgt i32 %19, 1
  br i1 %20, label %21, label %36

21:                                               ; preds = %17
  %22 = add nsw i32 %19, -1
  %23 = icmp samesign ult i32 %15, %22
  br i1 %23, label %24, label %33

24:                                               ; preds = %21
  store i32 %15, ptr %2, align 4, !tbaa !16
  call void @llvm.lifetime.start.p0(i64 8, ptr nonnull %13) #21
  call void @llvm.lifetime.start.p0(i64 8, ptr nonnull %14) #21
  call void @_ZN2cv10softdoubleC1Ei(ptr noundef nonnull align 8 dereferenceable(8) %14, i32 noundef %15)
  call void @_ZNK2cv10softdoublemiERKS0_(ptr dead_on_unwind nonnull writable sret(%"struct.cv::softdouble") align 8 %13, ptr noundef nonnull align 8 dereferenceable(8) %7, ptr noundef nonnull align 8 dereferenceable(8) %14)
  %25 = getelementptr inbounds nuw i8, ptr %3, i64 8
  call void @llvm.lifetime.start.p0(i64 8, ptr nonnull %5) #21
  call void @llvm.lifetime.start.p0(i64 8, ptr nonnull %6) #21
  call void @_ZN2cv10softdoubleC1El(ptr noundef nonnull align 8 dereferenceable(8) %6, i64 noundef 4294967296)
  call void @_ZNK2cv10softdoublemlERKS0_(ptr dead_on_unwind nonnull writable sret(%"struct.cv::softdouble") align 8 %5, ptr noundef nonnull align 8 dereferenceable(8) %13, ptr noundef nonnull align 8 dereferenceable(8) %6)
  %26 = call noundef i64 @_Z9cvRound64RKN2cv10softdoubleE(ptr noundef nonnull align 8 dereferenceable(8) %5)
  store i64 %26, ptr %25, align 8, !tbaa !1346
  call void @llvm.lifetime.end.p0(i64 8, ptr nonnull %6) #21
  call void @llvm.lifetime.end.p0(i64 8, ptr nonnull %5) #21
  call void @llvm.lifetime.end.p0(i64 8, ptr nonnull %14) #21
  call void @llvm.lifetime.end.p0(i64 8, ptr nonnull %13) #21
  %27 = sub nsw i64 4294967296, %26
  %28 = and i64 %27, %26
  %29 = icmp slt i64 %28, 0
  %30 = and i64 %27, -9223372036854775808
  %31 = xor i64 %30, -1
  %32 = select i1 %29, i64 %31, i64 %27
  store i64 %32, ptr %3, align 8, !tbaa !1346
  br label %40

33:                                               ; preds = %21
  store i32 %22, ptr %2, align 4, !tbaa !16
  %34 = getelementptr inbounds nuw i8, ptr %0, i64 16
  %35 = load i32, ptr %34, align 8, !tbaa !16
  %.sroa.speculated16 = call i32 @llvm.smin.i32(i32 %1, i32 %35)
  store i32 %.sroa.speculated16, ptr %34, align 8, !tbaa !302
  br label %40

36:                                               ; preds = %17, %4
  %37 = getelementptr inbounds nuw i8, ptr %0, i64 12
  %38 = add nsw i32 %1, 1
  %39 = load i32, ptr %37, align 4, !tbaa !16
  %.sroa.speculated = call i32 @llvm.smax.i32(i32 %39, i32 %38)
  store i32 %.sroa.speculated, ptr %37, align 4, !tbaa !301
  br label %40

40:                                               ; preds = %24, %33, %36
  call void @llvm.lifetime.end.p0(i64 8, ptr nonnull %7) #21
  ret void
}